; Function Attrs: mustprogress nounwind uwtable
define hidden void @_ZN13MetaspacePool16get_memory_usageEv(ptr dead_on_unwind noalias nocapture writable writeonly sret(%class.MemoryUsage) align 8 %0, ptr noundef nonnull align 8 dereferenceable(201) %1) unnamed_addr #0 align 2 {
  %3 = alloca %class.MetaspaceCombinedStats, align 8
  call void @_ZN14MetaspaceUtils23get_combined_statisticsEv(ptr dead_on_unwind nonnull writable sret(%class.MetaspaceCombinedStats) align 8 %3) #10
  %4 = getelementptr inbounds i8, ptr %1, i64 24
  %5 = load i64, ptr %4, align 8
  %6 = getelementptr inbounds i8, ptr %3, i64 8
  %7 = load ptr, ptr %1, align 8
  %8 = getelementptr inbounds i8, ptr %7, i64 16
  %9 = load ptr, ptr %8, align 8
  %10 = getelementptr inbounds i8, ptr %0, i64 8
  %11 = load <2 x i64>, ptr %6, align 8
  %12 = call noundef i64 %9(ptr noundef nonnull align 8 dereferenceable(201) %1) #10
  store i64 %5, ptr %0, align 8
  %13 = shufflevector <2 x i64> %11, <2 x i64> poison, <2 x i32> <i32 1, i32 0>
  store <2 x i64> %13, ptr %10, align 8
  %14 = getelementptr inbounds i8, ptr %0, i64 24
  store i64 %12, ptr %14, align 8
  ret void
}